; Function Attrs: mustprogress nounwind uwtable
define internal void @_ZN9grpc_core12_GLOBAL__N_120XdsClusterResolverLb28LogicalDNSDiscoveryMechanism21ResolverResultHandlerD2Ev(ptr nocapture noundef nonnull align 8 dereferenceable(16) %this) unnamed_addr #7 align 2 personality ptr @__gxx_personality_v0 {
entry:
  store ptr getelementptr inbounds ({ [5 x ptr] }, ptr @_ZTVN9grpc_core12_GLOBAL__N_120XdsClusterResolverLb28LogicalDNSDiscoveryMechanism21ResolverResultHandlerE, i64 0, i32 0, i64 2), ptr %this, align 8
  %discovery_mechanism_ = getelementptr inbounds i8, ptr %this, i64 8
  %discovery_mechanism_.val = load ptr, ptr %discovery_mechanism_, align 8
  %cmp.not.i = icmp eq ptr %discovery_mechanism_.val, null
  br i1 %cmp.not.i, label %_ZN9grpc_core13RefCountedPtrINS_12_GLOBAL__N_120XdsClusterResolverLb28LogicalDNSDiscoveryMechanismEED2Ev.exit, label %if.then.i

if.then.i:                                        ; preds = %entry
  %refs_.i.i = getelementptr inbounds i8, ptr %discovery_mechanism_.val, i64 8
  %0 = atomicrmw sub ptr %refs_.i.i, i64 1 acq_rel, align 8
  %cmp.i.i.i = icmp eq i64 %0, 1
  br i1 %cmp.i.i.i, label %if.then.i.i, label %_ZN9grpc_core13RefCountedPtrINS_12_GLOBAL__N_120XdsClusterResolverLb28LogicalDNSDiscoveryMechanismEED2Ev.exit

if.then.i.i:                                      ; preds = %if.then.i
  %vtable.i.i.i = load ptr, ptr %discovery_mechanism_.val, align 8
  %vfn.i.i.i = getelementptr inbounds i8, ptr %vtable.i.i.i, i64 16
  %1 = load ptr, ptr %vfn.i.i.i, align 8
  tail call void %1(ptr noundef nonnull align 8 dereferenceable(32) %discovery_mechanism_.val) #27
  br label %_ZN9grpc_core13RefCountedPtrINS_12_GLOBAL__N_120XdsClusterResolverLb28LogicalDNSDiscoveryMechanismEED2Ev.exit

_ZN9grpc_core13RefCountedPtrINS_12_GLOBAL__N_120XdsClusterResolverLb28LogicalDNSDiscoveryMechanismEED2Ev.exit: ; preds = %entry, %if.then.i, %if.then.i.i
  ret void
}